Certificate:
    Data:
        Version: 3 (0x2)
        Serial Number: 19 (0x13)
    Signature Algorithm: sha256WithRSAEncryption
        Issuer: C=NL, ST=Gelderland, L=Arnhem, O=OSGP, OU=OSGP, CN=OSGP/emailAddress=address@OSGP.com
        Validity
            Not Before: Jan 10 14:57:08 2022 GMT
            Not After : Jan  9 14:57:08 2025 GMT
        Subject: CN=gxf-publiclight-domain
        Subject Public Key Info:
            Public Key Algorithm: rsaEncryption
                Public-Key: (2048 bit)
                Modulus:
                    00:d9:94:fc:22:ba:d8:5e:98:3b:e2:a2:48:b1:64:
                    51:03:d2:a4:b5:1e:53:58:71:70:d4:30:c4:eb:82:
                    37:ca:bd:4f:e5:6a:48:5d:59:33:ce:5f:40:2e:af:
                    06:17:92:61:67:c0:d5:71:83:34:be:43:fd:c9:50:
                    f2:12:2d:88:9b:ca:ff:35:f0:67:e3:1c:e9:9f:50:
                    69:6f:cb:e3:07:82:a4:56:07:48:a0:9c:90:f0:fc:
                    7d:26:a8:d2:63:1a:6e:d0:bf:2a:d5:0d:80:6c:74:
                    93:ef:0d:31:0c:67:37:57:f8:25:14:d8:03:b9:ac:
                    99:b4:ec:16:88:6b:79:fb:b9:f8:b8:1e:6a:4c:4c:
                    38:27:4a:66:e3:99:ec:14:83:ee:64:2b:dc:90:24:
                    83:59:2c:ce:b6:ed:76:cd:91:c3:99:32:da:69:50:
                    e1:f5:a6:7c:3c:34:7a:49:d6:0d:f9:16:67:ee:41:
                    d8:a8:01:b0:78:17:db:1c:c1:1c:55:dc:82:05:57:
                    1f:c0:a8:c5:ab:ec:27:ea:d4:e3:0d:c7:66:80:69:
                    ea:dc:3c:f5:ab:19:f0:1f:dc:94:bb:bc:9b:3b:b9:
                    55:bb:a4:ce:d2:f8:1f:0d:d8:e4:ee:2d:cb:0f:6e:
                    d2:8a:30:09:cb:f0:c0:9e:89:e0:42:4a:40:0b:b9:
                    ed:ad
                Exponent: 65537 (0x10001)
        X509v3 extensions:
            X509v3 Basic Constraints: 
                CA:FALSE
            X509v3 Key Usage: critical
                Digital Signature, Non Repudiation, Key Encipherment, Data Encipherment
            X509v3 Extended Key Usage: 
                TLS Web Server Authentication
            X509v3 Subject Key Identifier: 
                F7:A9:3E:DD:00:69:D5:81:08:0C:5C:97:09:FC:21:AD:E7:8A:11:28
    Signature Algorithm: sha256WithRSAEncryption
         c0:22:b3:3b:3b:dc:c4:dd:12:df:32:1f:24:cf:ae:8f:4a:3f:
         11:b2:1b:18:86:7a:a5:0b:9d:8a:bc:82:68:ef:45:19:54:17:
         2c:ee:37:83:49:a1:99:36:33:05:5e:d2:f6:fc:83:d5:f6:24:
         cd:79:de:26:0a:31:38:aa:ee:60:ac:68:b1:d3:3d:dd:5f:61:
         a0:97:4b:ff:a0:b4:d5:87:4a:08:6b:cb:ce:a0:06:3b:86:21:
         48:8b:f2:35:39:ac:15:63:88:60:f7:b3:4c:3e:92:54:d9:a9:
         aa:8d:e8:5d:f7:a7:3f:1c:ec:e6:18:f2:64:a5:c0:4f:ea:00:
         e8:45:4a:d8:4b:0d:b8:d7:ed:86:ef:f2:7a:0b:1b:b2:45:47:
         7e:80:ba:ef:38:4a:12:c2:71:c9:6f:0d:f8:df:06:95:1f:81:
         6d:69:63:ce:70:8a:91:bc:b5:2b:a0:b1:68:5b:9d:63:f3:a5:
         70:eb:c0:31:2f:c1:20:72:95:ef:03:26:e9:4e:ac:66:65:7a:
         55:19:d4:8d:57:08:bf:a6:cd:36:0b:2e:d2:2a:df:fc:e5:82:
         77:ed:31:7a:86:12:b6:82:86:e0:8c:4d:33:02:ff:5d:21:ba:
         ed:c7:b2:99:39:22:d6:65:fd:a4:c7:a4:25:83:b2:0a:5d:39:
         ef:a9:af:dc:ba:89:f9:bb:5f:94:1d:eb:54:41:32:c0:d2:d7:
         2c:a4:df:46:b4:f3:58:fb:a1:8a:c6:48:98:eb:32:d5:dd:0a:
         11:64:ff:f6:fd:c2:84:d1:85:ff:67:5c:8e:86:1c:c9:92:4c:
         38:ab:ff:5f:a6:ef:e2:8e:30:ca:ef:97:35:b7:54:da:f1:da:
         55:7b:a1:90:c0:16:93:4a:40:75:3c:7b:8f:d2:0e:dd:00:bd:
         b7:eb:9a:bc:c5:ed:28:b2:9c:b9:d6:56:c3:4a:fb:e4:31:a9:
         57:77:25:64:d4:bc:53:99:ac:0d:5a:93:9d:b6:3c:ef:06:f2:
         66:ae:f1:11:50:76:2f:65:90:2e:9f:24:17:24:ba:04:24:b4:
         ed:12:4c:9b:27:a2:53:91:a5:2f:e4:b1:57:77:48:f1:bd:05:
         dd:8a:22:7e:53:c9:7f:1b:0e:d4:f2:36:01:67:12:46:3e:e8:
         07:6d:ef:44:91:42:c4:74:01:c1:e4:a9:24:38:6c:f3:97:19:
         c1:15:48:0e:61:bf:bb:bd:99:13:7b:34:69:3e:ff:c4:9f:33:
         15:20:6a:28:b4:2d:d8:a4:27:c2:db:9e:08:02:44:7d:02:27:
         4b:c6:a8:29:bd:59:f6:f2:8a:d2:e4:4e:72:03:20:a3:75:10:
         91:f4:8d:6b:74:cc:4f:dd
-----BEGIN CERTIFICATE-----
MIIEbzCCAlegAwIBAgIBEzANBgkqhkiG9w0BAQsFADCBgTELMAkGA1UEBhMCTkwx
EzARBgNVBAgTCkdlbGRlcmxhbmQxDzANBgNVBAcTBkFybmhlbTENMAsGA1UEChME
T1NHUDENMAsGA1UECxMET1NHUDENMAsGA1UEAxMET1NHUDEfMB0GCSqGSIb3DQEJ
ARYQYWRkcmVzc0BPU0dQLmNvbTAeFw0yMjAxMTAxNDU3MDhaFw0yNTAxMDkxNDU3
MDhaMCExHzAdBgNVBAMMFmd4Zi1wdWJsaWNsaWdodC1kb21haW4wggEiMA0GCSqG
SIb3DQEBAQUAA4IBDwAwggEKAoIBAQDZlPwiuthemDviokixZFED0qS1HlNYcXDU
MMTrgjfKvU/lakhdWTPOX0AurwYXkmFnwNVxgzS+Q/3JUPISLYibyv818GfjHOmf
UGlvy+MHgqRWB0ignJDw/H0mqNJjGm7QvyrVDYBsdJPvDTEMZzdX+CUU2AO5rJm0
7BaIa3n7ufi4HmpMTDgnSmbjmewUg+5kK9yQJINZLM627XbNkcOZMtppUOH1pnw8
NHpJ1g35FmfuQdioAbB4F9scwRxV3IIFVx/AqMWr7Cfq1OMNx2aAaercPPWrGfAf
3JS7vJs7uVW7pM7S+B8N2OTuLcsPbtKKMAnL8MCeieBCSkALue2tAgMBAAGjUTBP
MAkGA1UdEwQCMAAwDgYDVR0PAQH/BAQDAgTwMBMGA1UdJQQMMAoGCCsGAQUFBwMB
MB0GA1UdDgQWBBT3qT7dAGnVgQgMXJcJ/CGt54oRKDANBgkqhkiG9w0BAQsFAAOC
AgEAwCKzOzvcxN0S3zIfJM+uj0o/EbIbGIZ6pQudiryCaO9FGVQXLO43g0mhmTYz
BV7S9vyD1fYkzXneJgoxOKruYKxosdM93V9hoJdL/6C01YdKCGvLzqAGO4YhSIvy
NTmsFWOIYPezTD6SVNmpqo3oXfenPxzs5hjyZKXAT+oA6EVK2EsNuNfthu/yegsb
skVHfoC67zhKEsJxyW8N+N8GlR+BbWljznCKkby1K6CxaFudY/OlcOvAMS/BIHKV
7wMm6U6sZmV6VRnUjVcIv6bNNgsu0irf/OWCd+0xeoYStoKG4IxNMwL/XSG67cey
mTki1mX9pMekJYOyCl0576mv3LqJ+btflB3rVEEywNLXLKTfRrTzWPuhisZImOsy
1d0KEWT/9v3ChNGF/2dcjoYcyZJMOKv/X6bv4o4wyu+XNbdU2vHaVXuhkMAWk0pA
dTx7j9IO3QC9t+uavMXtKLKcudZWw0r75DGpV3clZNS8U5msDVqTnbY87wbyZq7x
EVB2L2WQLp8kFyS6BCS07RJMmyeiU5GlL+SxV3dI8b0F3YoiflPJfxsO1PI2AWcS
Rj7oB23vRJFCxHQBweSpJDhs85cZwRVIDmG/u72ZE3s0aT7/xJ8zFSBqKLQt2KQn
wtueCAJEfQInS8aoKb1Z9vKK0uROcgMgo3UQkfSNa3TMT90=
-----END CERTIFICATE-----
