Certificate:
    Data:
        Version: 3 (0x2)
        Serial Number: 19 (0x13)
    Signature Algorithm: sha256WithRSAEncryption
        Issuer: C=NL, ST=Gelderland, L=Arnhem, O=OSGP, OU=OSGP, CN=OSGP/emailAddress=address@OSGP.com
        Validity
            Not Before: Jan 10 14:52:42 2022 GMT
            Not After : Jan  9 14:52:42 2025 GMT
        Subject: CN=gxf-publiclight-domain
        Subject Public Key Info:
            Public Key Algorithm: rsaEncryption
                Public-Key: (2048 bit)
                Modulus:
                    00:aa:35:de:e6:6a:69:90:09:3e:b8:0f:49:78:ba:
                    fb:05:0a:3b:84:2c:f1:2d:1c:53:2a:c8:dd:1e:14:
                    b6:fc:03:ed:23:fa:d7:c9:ba:64:48:4f:ee:00:c3:
                    bc:f6:4b:69:96:e2:b3:2e:28:6c:b8:9c:f5:6f:5d:
                    cc:6b:6e:48:c7:f0:ae:00:12:ce:ea:d2:ea:46:7c:
                    fb:21:36:a0:c8:5f:cc:a0:2b:3d:03:eb:c8:14:50:
                    30:07:36:e7:3d:f0:f9:d8:0d:8f:4a:fe:f0:17:93:
                    4a:98:7d:50:13:5f:21:0a:95:15:ba:fd:06:d2:09:
                    7b:22:1e:16:17:ad:19:51:3c:2c:47:fa:d3:5e:54:
                    3e:e5:d5:02:1f:4d:91:05:bd:aa:ba:7d:01:84:09:
                    44:9e:4f:cb:62:14:9f:2f:1c:cf:b8:5a:23:d4:e8:
                    79:45:b0:fc:78:3b:d2:6e:4a:3e:b1:a4:c3:55:5d:
                    42:ca:17:50:2a:22:c2:b9:44:51:f6:93:f5:31:58:
                    75:71:9d:15:6b:30:29:c2:dc:f1:6c:19:44:a2:b1:
                    7d:3a:4b:1e:e3:04:1c:c9:6c:be:aa:06:5c:92:26:
                    9e:fb:e6:6b:ab:e1:ac:34:d5:11:da:b3:03:52:15:
                    5a:d7:07:0f:9d:49:c8:ef:86:51:5b:15:da:6d:4f:
                    e6:5d
                Exponent: 65537 (0x10001)
        X509v3 extensions:
            X509v3 Basic Constraints: 
                CA:FALSE
            X509v3 Key Usage: critical
                Digital Signature, Non Repudiation, Key Encipherment, Data Encipherment
            X509v3 Extended Key Usage: 
                TLS Web Client Authentication
            X509v3 Subject Key Identifier: 
                F0:75:82:01:E5:54:AD:E9:2D:EF:E1:1E:38:E5:77:A8:2E:6B:D9:25
    Signature Algorithm: sha256WithRSAEncryption
         64:2a:e0:10:6d:3f:46:d2:58:c1:75:c9:79:a5:ea:4f:04:7e:
         f4:a5:8b:bf:5b:b6:e9:61:75:80:77:71:5c:5e:b3:4c:9c:1a:
         6a:26:a8:58:f3:91:eb:49:a6:d1:f7:ae:65:c7:07:33:a7:a8:
         0a:31:a9:be:e6:a7:67:e2:63:7c:bf:3e:14:7e:3c:e1:45:24:
         83:7c:4d:77:71:af:c4:96:1d:f6:67:94:a8:70:d0:6f:bd:00:
         df:3a:9a:75:d4:30:1e:07:b6:ec:6b:2f:4f:45:df:ab:c5:2f:
         6b:9c:f4:8a:66:5c:11:3f:b7:3a:ae:e5:4e:e1:6b:f0:f4:d9:
         cf:92:66:72:c1:c9:08:f0:aa:28:1e:0f:b4:b9:a9:a1:81:db:
         22:63:f3:50:41:a8:2b:07:df:04:26:5b:f6:77:a2:49:dc:c7:
         06:5d:5c:45:4c:c5:87:d6:23:f4:4a:84:f4:ff:bd:76:aa:c0:
         ce:ae:ad:11:91:26:40:08:16:97:65:4a:f8:3b:d3:49:c4:fc:
         8a:22:2b:5d:2e:6f:f2:31:dc:a3:d5:d1:5a:ca:14:22:da:67:
         75:95:7f:f8:ce:48:a9:a5:9f:a6:2f:aa:d3:e4:a1:dd:a0:eb:
         1b:80:20:a6:30:8f:03:a1:df:4e:02:22:83:68:1b:36:58:3f:
         f5:b2:f0:f4:20:66:49:d8:04:8c:1b:62:68:1b:fa:8b:f2:1d:
         7c:83:a4:08:64:b2:88:3d:54:20:e4:39:28:72:61:dd:33:40:
         e5:a8:df:50:5b:a8:6d:20:f8:ba:f7:89:18:c7:7e:ea:cd:14:
         72:ea:45:85:cc:94:79:d8:6a:bb:89:bd:0f:ff:5a:e2:94:a4:
         08:e5:00:5f:7d:aa:8c:0b:3f:dd:28:15:bb:ac:45:77:85:b0:
         52:e8:bc:3d:82:c7:d2:ce:ba:e5:c0:b4:5e:e0:5d:92:54:7d:
         02:2e:ff:f1:94:4f:e1:f7:9f:18:f4:b0:43:78:ec:f2:e9:50:
         36:4c:34:d1:e1:0d:1b:aa:97:60:46:a2:b8:53:8e:7c:29:c8:
         87:e3:e3:ec:7f:ff:a0:30:10:4f:e8:5e:cb:fb:67:1c:4a:d7:
         2a:e4:ad:88:84:d1:ef:f1:20:1c:43:7a:a8:fb:5f:00:a9:9e:
         fc:e8:72:ac:99:0c:5c:dd:93:d8:b0:92:2d:32:e9:20:10:66:
         3d:33:07:df:f0:58:e8:48:79:37:a2:bc:86:7b:a3:53:6d:cc:
         59:03:2d:dc:65:7f:1d:2a:a4:9e:2c:a2:f6:41:03:f6:a0:df:
         22:8c:83:25:de:24:89:74:96:81:f1:34:72:ad:47:0a:28:f6:
         6f:e2:45:70:8f:54:a7:de
-----BEGIN CERTIFICATE-----
MIIEbzCCAlegAwIBAgIBEzANBgkqhkiG9w0BAQsFADCBgTELMAkGA1UEBhMCTkwx
EzARBgNVBAgTCkdlbGRlcmxhbmQxDzANBgNVBAcTBkFybmhlbTENMAsGA1UEChME
T1NHUDENMAsGA1UECxMET1NHUDENMAsGA1UEAxMET1NHUDEfMB0GCSqGSIb3DQEJ
ARYQYWRkcmVzc0BPU0dQLmNvbTAeFw0yMjAxMTAxNDUyNDJaFw0yNTAxMDkxNDUy
NDJaMCExHzAdBgNVBAMMFmd4Zi1wdWJsaWNsaWdodC1kb21haW4wggEiMA0GCSqG
SIb3DQEBAQUAA4IBDwAwggEKAoIBAQCqNd7mammQCT64D0l4uvsFCjuELPEtHFMq
yN0eFLb8A+0j+tfJumRIT+4Aw7z2S2mW4rMuKGy4nPVvXcxrbkjH8K4AEs7q0upG
fPshNqDIX8ygKz0D68gUUDAHNuc98PnYDY9K/vAXk0qYfVATXyEKlRW6/QbSCXsi
HhYXrRlRPCxH+tNeVD7l1QIfTZEFvaq6fQGECUSeT8tiFJ8vHM+4WiPU6HlFsPx4
O9JuSj6xpMNVXULKF1AqIsK5RFH2k/UxWHVxnRVrMCnC3PFsGUSisX06Sx7jBBzJ
bL6qBlySJp775mur4aw01RHaswNSFVrXBw+dScjvhlFbFdptT+ZdAgMBAAGjUTBP
MAkGA1UdEwQCMAAwDgYDVR0PAQH/BAQDAgTwMBMGA1UdJQQMMAoGCCsGAQUFBwMC
MB0GA1UdDgQWBBTwdYIB5VSt6S3v4R445XeoLmvZJTANBgkqhkiG9w0BAQsFAAOC
AgEAZCrgEG0/RtJYwXXJeaXqTwR+9KWLv1u26WF1gHdxXF6zTJwaaiaoWPOR60mm
0feuZccHM6eoCjGpvuanZ+JjfL8+FH484UUkg3xNd3GvxJYd9meUqHDQb70A3zqa
ddQwHge27GsvT0Xfq8Uva5z0imZcET+3Oq7lTuFr8PTZz5JmcsHJCPCqKB4PtLmp
oYHbImPzUEGoKwffBCZb9neiSdzHBl1cRUzFh9Yj9EqE9P+9dqrAzq6tEZEmQAgW
l2VK+DvTScT8iiIrXS5v8jHco9XRWsoUItpndZV/+M5IqaWfpi+q0+Sh3aDrG4Ag
pjCPA6HfTgIig2gbNlg/9bLw9CBmSdgEjBtiaBv6i/IdfIOkCGSyiD1UIOQ5KHJh
3TNA5ajfUFuobSD4uveJGMd+6s0UcupFhcyUedhqu4m9D/9a4pSkCOUAX32qjAs/
3SgVu6xFd4WwUui8PYLH0s665cC0XuBdklR9Ai7/8ZRP4fefGPSwQ3js8ulQNkw0
0eENG6qXYEaiuFOOfCnIh+Pj7H//oDAQT+hey/tnHErXKuStiITR7/EgHEN6qPtf
AKme/OhyrJkMXN2T2LCSLTLpIBBmPTMH3/BY6Eh5N6K8hnujU23MWQMt3GV/HSqk
niyi9kED9qDfIoyDJd4kiXSWgfE0cq1HCij2b+JFcI9Up94=
-----END CERTIFICATE-----
